Certificate:
    Data:
        Version: 3 (0x2)
        Serial Number:
            3b:53:b8:1c:65:2c:a1:33:54:7b:53:eb:1f:b1:7a:e5
        Signature Algorithm: sha256WithRSAEncryption
        Issuer: C=PT, O=IPL, OU=ESTG DEI EI SI, CN=SI Intermediate CA
        Validity
            Not Before: May 22 15:41:45 2022 GMT
            Not After : May 22 15:41:45 2023 GMT
        Subject: C=PT, O=IPL, OU=ESTG DEI EI SI, CN=si.cert.a
        Subject Public Key Info:
            Public Key Algorithm: rsaEncryption
                RSA Public-Key: (2048 bit)
                Modulus:
                    00:d3:3a:61:f8:f0:85:c8:3c:cb:30:96:32:80:d9:
                    88:1c:0d:61:09:09:b5:63:9e:0d:2b:4e:59:63:b7:
                    84:71:bd:8e:4a:98:ad:e4:d6:9d:ae:da:63:8f:b2:
                    ac:09:e6:70:2a:72:5d:96:78:0b:e5:25:fa:7e:3d:
                    ad:29:07:f1:5a:21:e1:e2:ed:26:4b:15:23:60:14:
                    f2:7c:e4:7e:8d:f5:12:07:d9:cf:a2:80:6c:f1:10:
                    35:88:30:8b:f3:14:3f:8b:f6:7b:45:41:79:6c:a0:
                    5c:ff:37:58:cc:09:bd:25:36:78:64:18:ba:d2:90:
                    80:83:dc:b7:3d:5a:84:bb:0e:35:2e:3d:b9:42:20:
                    8a:ac:da:6f:fc:6d:e2:58:c5:13:0a:f8:e1:58:95:
                    96:ef:f2:8a:3a:df:bb:2f:bb:30:2d:c7:d3:76:47:
                    f2:bc:e8:a3:be:b3:b8:7a:19:d3:8a:fa:d9:ae:64:
                    63:bd:d7:f4:8d:5e:90:76:f8:60:82:b8:29:1b:0f:
                    ed:25:73:42:72:05:dd:51:18:7d:85:e9:6f:e2:4c:
                    12:13:28:9d:bd:25:5a:6f:4d:02:30:16:e0:81:cc:
                    5f:7f:52:a9:7c:21:11:f7:03:1d:c4:a5:7a:6c:91:
                    89:aa:8d:77:9f:9b:e6:86:b4:82:1e:5e:0d:3d:f1:
                    ef:2d
                Exponent: 65537 (0x10001)
        X509v3 extensions:
            Authority Information Access: 
                CA Issuers - URI:http://172.22.21.85.sslip.io/intermediate-ca/crt
                OCSP - URI:http://172.22.21.85.sslip.io/intermediate-ca/oscp

            X509v3 Authority Key Identifier: 
                keyid:01:BB:E3:FB:2D:F5:BB:29:C1:5C:9E:02:76:BA:9E:C6:CE:95:FF:03

            X509v3 Basic Constraints: critical
                CA:FALSE
            X509v3 CRL Distribution Points: 

                Full Name:
                  URI:http://172.22.21.85.sslip.io/intermediate-ca/crl

            X509v3 Extended Key Usage: 
                TLS Web Client Authentication, TLS Web Server Authentication
            X509v3 Key Usage: critical
                Digital Signature, Key Encipherment
            X509v3 Subject Key Identifier: 
                CF:A0:2C:1B:3D:F3:23:FF:9F:A1:58:0F:86:77:05:7D:34:ED:03:D9
    Signature Algorithm: sha256WithRSAEncryption
         04:db:ac:fe:f0:6e:4b:81:a6:a8:ec:9d:ec:73:ab:7a:80:4a:
         d5:ed:d2:01:a9:98:a8:55:f6:a3:15:9a:ac:97:bd:5d:8e:92:
         e8:16:7d:0f:fa:75:d3:23:71:1a:f1:f5:e4:aa:d5:49:8b:a0:
         2d:80:d7:44:d5:1e:4c:e0:c1:86:39:b5:07:08:de:23:e4:64:
         ed:1f:c7:c8:70:5b:ee:2d:dc:d7:72:13:2b:a0:21:fa:f3:5d:
         1d:bd:eb:01:41:a2:70:df:69:69:bd:17:93:50:1f:f4:9c:df:
         78:65:a5:42:37:21:d0:b6:6b:64:89:a0:05:f4:45:9c:4e:b5:
         a0:91:bd:3a:d8:cd:b5:96:61:a1:90:18:1d:64:e1:53:7d:06:
         6a:49:b5:29:05:e8:5f:38:f7:4b:46:bf:23:e6:ba:5e:0a:15:
         b5:80:97:f6:a8:d0:ec:42:f0:5d:38:fd:61:2d:38:72:5a:ce:
         fd:1d:11:ca:32:f8:94:e2:b9:de:7c:65:91:03:ae:b0:fb:72:
         cd:b6:51:61:24:9f:1a:f8:c2:24:db:a1:da:cc:20:1a:80:f3:
         64:65:35:87:f6:11:fd:e0:42:09:75:62:6b:f8:e7:b0:38:43:
         6f:6b:61:f4:17:3e:b7:31:a5:6d:3e:d6:4b:0f:78:37:9c:b1:
         e3:f9:64:d9
-----BEGIN CERTIFICATE-----
MIIEdzCCA1+gAwIBAgIQO1O4HGUsoTNUe1PrH7F65TANBgkqhkiG9w0BAQsFADBR
MQswCQYDVQQGEwJQVDEMMAoGA1UECgwDSVBMMRcwFQYDVQQLDA5FU1RHIERFSSBF
SSBTSTEbMBkGA1UEAwwSU0kgSW50ZXJtZWRpYXRlIENBMB4XDTIyMDUyMjE1NDE0
NVoXDTIzMDUyMjE1NDE0NVowSDELMAkGA1UEBhMCUFQxDDAKBgNVBAoMA0lQTDEX
MBUGA1UECwwORVNURyBERUkgRUkgU0kxEjAQBgNVBAMMCXNpLmNlcnQuYTCCASIw
DQYJKoZIhvcNAQEBBQADggEPADCCAQoCggEBANM6Yfjwhcg8yzCWMoDZiBwNYQkJ
tWOeDStOWWO3hHG9jkqYreTWna7aY4+yrAnmcCpyXZZ4C+Ul+n49rSkH8Voh4eLt
JksVI2AU8nzkfo31EgfZz6KAbPEQNYgwi/MUP4v2e0VBeWygXP83WMwJvSU2eGQY
utKQgIPctz1ahLsONS49uUIgiqzab/xt4ljFEwr44ViVlu/yijrfuy+7MC3H03ZH
8rzoo76zuHoZ04r62a5kY73X9I1ekHb4YIK4KRsP7SVzQnIF3VEYfYXpb+JMEhMo
nb0lWm9NAjAW4IHMX39SqXwhEfcDHcSlemyRiaqNd5+b5oa0gh5eDT3x7y0CAwEA
AaOCAVIwggFOMIGLBggrBgEFBQcBAQR/MH0wPAYIKwYBBQUHMAKGMGh0dHA6Ly8x
NzIuMjIuMjEuODUuc3NsaXAuaW8vaW50ZXJtZWRpYXRlLWNhL2NydDA9BggrBgEF
BQcwAYYxaHR0cDovLzE3Mi4yMi4yMS44NS5zc2xpcC5pby9pbnRlcm1lZGlhdGUt
Y2Evb3NjcDAfBgNVHSMEGDAWgBQBu+P7LfW7KcFcngJ2up7GzpX/AzAMBgNVHRMB
Af8EAjAAMEEGA1UdHwQ6MDgwNqA0oDKGMGh0dHA6Ly8xNzIuMjIuMjEuODUuc3Ns
aXAuaW8vaW50ZXJtZWRpYXRlLWNhL2NybDAdBgNVHSUEFjAUBggrBgEFBQcDAgYI
KwYBBQUHAwEwDgYDVR0PAQH/BAQDAgWgMB0GA1UdDgQWBBTPoCwbPfMj/5+hWA+G
dwV9NO0D2TANBgkqhkiG9w0BAQsFAAOCAQEABNus/vBuS4GmqOyd7HOreoBK1e3S
AamYqFX2oxWarJe9XY6S6BZ9D/p10yNxGvH15KrVSYugLYDXRNUeTODBhjm1Bwje
I+Rk7R/HyHBb7i3c13ITK6Ah+vNdHb3rAUGicN9pab0Xk1Af9JzfeGWlQjch0LZr
ZImgBfRFnE61oJG9OtjNtZZhoZAYHWThU30Gakm1KQXoXzj3S0a/I+a6XgoVtYCX
9qjQ7ELwXTj9YS04clrO/R0RyjL4lOK53nxlkQOusPtyzbZRYSSfGvjCJNuh2swg
GoDzZGU1h/YR/eBCCXVia/jnsDhDb2th9Bc+tzGlbT7WSw94N5yx4/lk2Q==
-----END CERTIFICATE-----
