Certificate:
    Data:
        Version: 3 (0x2)
        Serial Number:
            3b:53:b8:1c:65:2c:a1:33:54:7b:53:eb:1f:b1:7a:e6
        Signature Algorithm: sha256WithRSAEncryption
        Issuer: C=PT, O=IPL, OU=ESTG DEI EI SI, CN=SI Intermediate CA
        Validity
            Not Before: May 22 15:41:46 2022 GMT
            Not After : May 22 15:41:46 2023 GMT
        Subject: C=PT, O=IPL, OU=ESTG DEI EI SI, CN=si.cert.b
        Subject Public Key Info:
            Public Key Algorithm: rsaEncryption
                RSA Public-Key: (2048 bit)
                Modulus:
                    00:e5:02:35:eb:90:94:e4:7a:76:f3:2a:94:e2:c9:
                    9c:ac:cc:56:4b:4c:22:74:81:c3:7f:f7:34:2e:a1:
                    ce:ef:f6:e1:4e:43:b4:a3:b7:8c:66:82:0c:18:75:
                    f8:4b:02:25:97:44:6b:59:8d:c7:6f:bb:f4:31:c5:
                    51:7a:28:06:ac:90:19:be:f9:df:fc:61:51:f2:17:
                    a6:00:d8:75:cc:0c:56:5b:36:8e:59:3b:20:26:af:
                    d7:50:43:97:df:4a:cf:b0:d9:bc:5b:6a:5b:74:94:
                    ba:79:cc:2c:73:51:7a:ea:ff:b8:a0:37:42:42:e6:
                    b6:84:ca:14:c1:ca:f9:4e:12:26:cd:1f:10:43:08:
                    62:a8:51:57:47:86:1b:66:a3:33:c6:df:98:b7:a4:
                    99:5b:d6:ab:9c:50:3e:38:05:d6:bb:9a:70:15:78:
                    b9:12:43:61:6c:d1:8d:1d:71:8f:1e:53:76:f0:27:
                    6d:7e:a6:04:89:39:84:b0:b7:a2:eb:25:3e:f1:f7:
                    e2:cd:78:8a:03:db:f4:13:e6:29:3f:af:31:68:fa:
                    db:39:95:e3:4b:ea:48:47:0a:b6:2e:24:49:57:d2:
                    3a:f4:e4:40:9e:b1:9c:0d:f4:b7:99:61:7b:bd:ed:
                    2c:2e:8c:1a:a0:53:98:67:64:4f:d1:9e:64:dd:a4:
                    71:4b
                Exponent: 65537 (0x10001)
        X509v3 extensions:
            Authority Information Access: 
                CA Issuers - URI:http://172.22.21.85.sslip.io/intermediate-ca/crt
                OCSP - URI:http://172.22.21.85.sslip.io/intermediate-ca/oscp

            X509v3 Authority Key Identifier: 
                keyid:01:BB:E3:FB:2D:F5:BB:29:C1:5C:9E:02:76:BA:9E:C6:CE:95:FF:03

            X509v3 Basic Constraints: critical
                CA:FALSE
            X509v3 CRL Distribution Points: 

                Full Name:
                  URI:http://172.22.21.85.sslip.io/intermediate-ca/crl

            X509v3 Extended Key Usage: 
                TLS Web Client Authentication, TLS Web Server Authentication
            X509v3 Key Usage: critical
                Digital Signature, Key Encipherment
            X509v3 Subject Key Identifier: 
                6F:86:B1:D9:C0:EB:0B:F9:74:F3:82:10:7B:65:4E:D4:27:64:72:F6
    Signature Algorithm: sha256WithRSAEncryption
         6f:c2:cd:0b:4b:25:84:1c:78:b0:7b:5d:41:1b:32:ed:23:73:
         ef:01:80:99:d3:4e:cd:13:70:f1:8d:7c:e2:e4:4f:c8:06:66:
         bc:fc:ac:1c:78:02:cd:5b:b0:52:35:0c:84:f3:af:b4:58:7f:
         dc:66:ba:81:45:e8:69:90:72:76:2f:7f:82:5f:00:a5:5f:18:
         e3:9b:2a:80:db:99:5b:95:16:9b:40:48:bd:70:06:7b:b8:b1:
         f6:68:0f:8d:53:d2:84:29:5d:ce:a3:56:1a:d4:bd:c5:1a:52:
         a2:b5:a8:21:4c:88:6f:43:c2:bb:07:2f:7e:4e:07:53:11:55:
         3d:04:51:79:20:23:ee:6d:d8:2e:72:fa:e7:be:1b:ff:25:05:
         bf:2b:d9:c4:9f:21:ca:3c:45:3b:59:32:15:a4:46:90:89:51:
         1d:6b:cd:1d:71:5d:52:fd:16:ac:d2:25:e4:91:cd:02:8b:fd:
         d1:e3:3f:4c:5e:c2:8b:6b:5b:5f:47:2e:90:25:71:df:60:2e:
         f2:11:d2:9f:5a:ce:9f:0d:c8:b2:6f:c3:76:30:53:bd:19:d3:
         86:c2:76:14:fe:49:23:ff:bf:ee:b9:69:c8:24:83:43:2e:13:
         35:4b:86:0b:c9:b2:fb:60:32:0d:6f:a2:ef:71:a6:d3:33:79:
         a9:bf:8c:e6
-----BEGIN CERTIFICATE-----
MIIEdzCCA1+gAwIBAgIQO1O4HGUsoTNUe1PrH7F65jANBgkqhkiG9w0BAQsFADBR
MQswCQYDVQQGEwJQVDEMMAoGA1UECgwDSVBMMRcwFQYDVQQLDA5FU1RHIERFSSBF
SSBTSTEbMBkGA1UEAwwSU0kgSW50ZXJtZWRpYXRlIENBMB4XDTIyMDUyMjE1NDE0
NloXDTIzMDUyMjE1NDE0NlowSDELMAkGA1UEBhMCUFQxDDAKBgNVBAoMA0lQTDEX
MBUGA1UECwwORVNURyBERUkgRUkgU0kxEjAQBgNVBAMMCXNpLmNlcnQuYjCCASIw
DQYJKoZIhvcNAQEBBQADggEPADCCAQoCggEBAOUCNeuQlOR6dvMqlOLJnKzMVktM
InSBw3/3NC6hzu/24U5DtKO3jGaCDBh1+EsCJZdEa1mNx2+79DHFUXooBqyQGb75
3/xhUfIXpgDYdcwMVls2jlk7ICav11BDl99Kz7DZvFtqW3SUunnMLHNReur/uKA3
QkLmtoTKFMHK+U4SJs0fEEMIYqhRV0eGG2ajM8bfmLekmVvWq5xQPjgF1ruacBV4
uRJDYWzRjR1xjx5TdvAnbX6mBIk5hLC3ouslPvH34s14igPb9BPmKT+vMWj62zmV
40vqSEcKti4kSVfSOvTkQJ6xnA30t5lhe73tLC6MGqBTmGdkT9GeZN2kcUsCAwEA
AaOCAVIwggFOMIGLBggrBgEFBQcBAQR/MH0wPAYIKwYBBQUHMAKGMGh0dHA6Ly8x
NzIuMjIuMjEuODUuc3NsaXAuaW8vaW50ZXJtZWRpYXRlLWNhL2NydDA9BggrBgEF
BQcwAYYxaHR0cDovLzE3Mi4yMi4yMS44NS5zc2xpcC5pby9pbnRlcm1lZGlhdGUt
Y2Evb3NjcDAfBgNVHSMEGDAWgBQBu+P7LfW7KcFcngJ2up7GzpX/AzAMBgNVHRMB
Af8EAjAAMEEGA1UdHwQ6MDgwNqA0oDKGMGh0dHA6Ly8xNzIuMjIuMjEuODUuc3Ns
aXAuaW8vaW50ZXJtZWRpYXRlLWNhL2NybDAdBgNVHSUEFjAUBggrBgEFBQcDAgYI
KwYBBQUHAwEwDgYDVR0PAQH/BAQDAgWgMB0GA1UdDgQWBBRvhrHZwOsL+XTzghB7
ZU7UJ2Ry9jANBgkqhkiG9w0BAQsFAAOCAQEAb8LNC0slhBx4sHtdQRsy7SNz7wGA
mdNOzRNw8Y184uRPyAZmvPysHHgCzVuwUjUMhPOvtFh/3Ga6gUXoaZBydi9/gl8A
pV8Y45sqgNuZW5UWm0BIvXAGe7ix9mgPjVPShCldzqNWGtS9xRpSorWoIUyIb0PC
uwcvfk4HUxFVPQRReSAj7m3YLnL6574b/yUFvyvZxJ8hyjxFO1kyFaRGkIlRHWvN
HXFdUv0WrNIl5JHNAov90eM/TF7Ci2tbX0cukCVx32Au8hHSn1rOnw3Ism/DdjBT
vRnThsJ2FP5JI/+/7rlpyCSDQy4TNUuGC8my+2AyDW+i73Gm0zN5qb+M5g==
-----END CERTIFICATE-----
